; Function Attrs: mustprogress nounwind uwtable
define hidden noundef ptr @_ZNK10ArrayKlass10find_fieldEP6SymbolS1_P15fieldDescriptor(ptr nocapture noundef nonnull readonly align 8 dereferenceable(216) %0, ptr noundef %1, ptr noundef %2, ptr noundef %3) unnamed_addr #0 align 2 {
  %5 = getelementptr inbounds i8, ptr %0, i64 120
  %6 = load ptr, ptr %5, align 8
  %7 = load ptr, ptr %6, align 8
  %8 = getelementptr inbounds i8, ptr %7, i64 184
  %9 = load ptr, ptr %8, align 8
  %10 = tail call noundef ptr %9(ptr noundef nonnull align 8 dereferenceable(196) %6, ptr noundef %1, ptr noundef %2, ptr noundef %3) #13
  ret ptr %10
}